; ModuleID = '25/958.c'
source_filename = "25/958.c"
target datalayout = "e-m:e-p270:32:32-p271:32:32-p272:64:64-i64:64-f80:128-n8:16:32:64-S128"
target triple = "x86_64-pc-linux-gnu"

@.str = private unnamed_addr constant [3 x i8] c"%d\00", align 1
@.str.1 = private unnamed_addr constant [3 x i8] c"%c\00", align 1
@.str.2 = private unnamed_addr constant [2 x i8] c"1\00", align 1

; Function Attrs: noinline nounwind uwtable
define dso_local i32 @main() #0 {
  %1 = alloca i32, align 4
  %2 = alloca i32, align 4
  %3 = alloca i32, align 4
  %4 = alloca i32, align 4
  %5 = alloca i32, align 4
  %6 = alloca i32, align 4
  %7 = alloca i32, align 4
  %8 = alloca [1000 x i32], align 16
  %9 = alloca [1000 x i8], align 16
  %10 = alloca [1000 x i8], align 16
  %11 = alloca i32, align 4
  store i32 0, i32* %1, align 4
  store i32 0, i32* %2, align 4
  store i32 0, i32* %3, align 4
  store i32 0, i32* %6, align 4
  %12 = bitcast [1000 x i32]* %8 to i8*
  call void @llvm.memset.p0i8.i64(i8* align 16 %12, i8 0, i64 4000, i1 false)
  %13 = call i32 (i8*, ...) @__isoc99_scanf(i8* getelementptr inbounds ([3 x i8], [3 x i8]* @.str, i64 0, i64 0), i32* %4)
  store i32 0, i32* %5, align 4
  br label %14

14:                                               ; preds = %107, %0
  %15 = load i32, i32* %5, align 4
  %16 = load i32, i32* %4, align 4
  %17 = icmp slt i32 %15, %16
  br i1 %17, label %18, label %110

18:                                               ; preds = %14
  %19 = load i32, i32* %5, align 4
  %20 = icmp eq i32 %19, 0
  br i1 %20, label %21, label %23

21:                                               ; preds = %18
  %22 = getelementptr inbounds [1000 x i8], [1000 x i8]* %9, i64 0, i64 0
  store i8 50, i8* %22, align 16
  br label %107

23:                                               ; preds = %18
  store i32 0, i32* %7, align 4
  br label %24

24:                                               ; preds = %103, %23
  %25 = load i32, i32* %7, align 4
  %26 = sitofp i32 %25 to double
  %27 = load i32, i32* %4, align 4
  %28 = sitofp i32 %27 to double
  %29 = fmul double 4.000000e-01, %28
  %30 = fcmp ole double %26, %29
  br i1 %30, label %31, label %106

31:                                               ; preds = %24
  %32 = load i32, i32* %7, align 4
  %33 = sext i32 %32 to i64
  %34 = getelementptr inbounds [1000 x i8], [1000 x i8]* %9, i64 0, i64 %33
  %35 = load i8, i8* %34, align 1
  %36 = sext i8 %35 to i32
  %37 = sub nsw i32 %36, 48
  %38 = icmp slt i32 %37, 0
  br i1 %38, label %47, label %39

39:                                               ; preds = %31
  %40 = load i32, i32* %7, align 4
  %41 = sext i32 %40 to i64
  %42 = getelementptr inbounds [1000 x i8], [1000 x i8]* %9, i64 0, i64 %41
  %43 = load i8, i8* %42, align 1
  %44 = sext i8 %43 to i32
  %45 = sub nsw i32 %44, 48
  %46 = icmp sgt i32 %45, 9
  br i1 %46, label %47, label %51

47:                                               ; preds = %39, %31
  %48 = load i32, i32* %7, align 4
  %49 = sext i32 %48 to i64
  %50 = getelementptr inbounds [1000 x i8], [1000 x i8]* %9, i64 0, i64 %49
  store i8 48, i8* %50, align 1
  br label %51

51:                                               ; preds = %47, %39
  %52 = load i32, i32* %7, align 4
  %53 = sext i32 %52 to i64
  %54 = getelementptr inbounds [1000 x i8], [1000 x i8]* %9, i64 0, i64 %53
  %55 = load i8, i8* %54, align 1
  %56 = sext i8 %55 to i32
  %57 = sub nsw i32 %56, 48
  store i32 %57, i32* %3, align 4
  %58 = load i32, i32* %3, align 4
  %59 = mul nsw i32 %58, 2
  %60 = icmp sge i32 %59, 10
  br i1 %60, label %61, label %82

61:                                               ; preds = %51
  %62 = load i32, i32* %7, align 4
  %63 = add nsw i32 %62, 1
  %64 = sext i32 %63 to i64
  %65 = getelementptr inbounds [1000 x i32], [1000 x i32]* %8, i64 0, i64 %64
  store i32 1, i32* %65, align 4
  %66 = load i32, i32* %3, align 4
  %67 = mul nsw i32 %66, 2
  %68 = srem i32 %67, 10
  %69 = add nsw i32 %68, 48
  %70 = load i32, i32* %7, align 4
  %71 = sext i32 %70 to i64
  %72 = getelementptr inbounds [1000 x i32], [1000 x i32]* %8, i64 0, i64 %71
  %73 = load i32, i32* %72, align 4
  %74 = add nsw i32 %69, %73
  %75 = trunc i32 %74 to i8
  %76 = load i32, i32* %7, align 4
  %77 = sext i32 %76 to i64
  %78 = getelementptr inbounds [1000 x i8], [1000 x i8]* %9, i64 0, i64 %77
  store i8 %75, i8* %78, align 1
  %79 = load i32, i32* %7, align 4
  %80 = sext i32 %79 to i64
  %81 = getelementptr inbounds [1000 x i32], [1000 x i32]* %8, i64 0, i64 %80
  store i32 0, i32* %81, align 4
  br label %82

82:                                               ; preds = %61, %51
  %83 = load i32, i32* %3, align 4
  %84 = mul nsw i32 %83, 2
  %85 = icmp slt i32 %84, 10
  br i1 %85, label %86, label %102

86:                                               ; preds = %82
  %87 = load i32, i32* %3, align 4
  %88 = mul nsw i32 %87, 2
  %89 = add nsw i32 %88, 48
  %90 = load i32, i32* %7, align 4
  %91 = sext i32 %90 to i64
  %92 = getelementptr inbounds [1000 x i32], [1000 x i32]* %8, i64 0, i64 %91
  %93 = load i32, i32* %92, align 4
  %94 = add nsw i32 %89, %93
  %95 = trunc i32 %94 to i8
  %96 = load i32, i32* %7, align 4
  %97 = sext i32 %96 to i64
  %98 = getelementptr inbounds [1000 x i8], [1000 x i8]* %9, i64 0, i64 %97
  store i8 %95, i8* %98, align 1
  %99 = load i32, i32* %7, align 4
  %100 = sext i32 %99 to i64
  %101 = getelementptr inbounds [1000 x i32], [1000 x i32]* %8, i64 0, i64 %100
  store i32 0, i32* %101, align 4
  br label %102

102:                                              ; preds = %86, %82
  br label %103

103:                                              ; preds = %102
  %104 = load i32, i32* %7, align 4
  %105 = add nsw i32 %104, 1
  store i32 %105, i32* %7, align 4
  br label %24

106:                                              ; preds = %24
  br label %107

107:                                              ; preds = %106, %21
  %108 = load i32, i32* %5, align 4
  %109 = add nsw i32 %108, 1
  store i32 %109, i32* %5, align 4
  br label %14

110:                                              ; preds = %14
  %111 = getelementptr inbounds [1000 x i8], [1000 x i8]* %9, i64 0, i64 0
  %112 = call i64 @strlen(i8* %111) #4
  %113 = trunc i64 %112 to i32
  store i32 %113, i32* %11, align 4
  br label %114

114:                                              ; preds = %144, %110
  %115 = load i32, i32* %11, align 4
  %116 = icmp sge i32 %115, 0
  br i1 %116, label %117, label %147

117:                                              ; preds = %114
  %118 = load i32, i32* %11, align 4
  %119 = sext i32 %118 to i64
  %120 = getelementptr inbounds [1000 x i8], [1000 x i8]* %9, i64 0, i64 %119
  %121 = load i8, i8* %120, align 1
  %122 = sext i8 %121 to i32
  %123 = sub nsw i32 %122, 48
  %124 = icmp sge i32 %123, 0
  br i1 %124, label %125, label %143

125:                                              ; preds = %117
  %126 = load i32, i32* %11, align 4
  %127 = sext i32 %126 to i64
  %128 = getelementptr inbounds [1000 x i8], [1000 x i8]* %9, i64 0, i64 %127
  %129 = load i8, i8* %128, align 1
  %130 = sext i8 %129 to i32
  %131 = sub nsw i32 %130, 48
  %132 = icmp sle i32 %131, 9
  br i1 %132, label %133, label %143

133:                                              ; preds = %125
  %134 = load i32, i32* %11, align 4
  %135 = sext i32 %134 to i64
  %136 = getelementptr inbounds [1000 x i8], [1000 x i8]* %9, i64 0, i64 %135
  %137 = load i8, i8* %136, align 1
  %138 = load i32, i32* %6, align 4
  %139 = sext i32 %138 to i64
  %140 = getelementptr inbounds [1000 x i8], [1000 x i8]* %10, i64 0, i64 %139
  store i8 %137, i8* %140, align 1
  %141 = load i32, i32* %6, align 4
  %142 = add nsw i32 %141, 1
  store i32 %142, i32* %6, align 4
  br label %143

143:                                              ; preds = %133, %125, %117
  br label %144

144:                                              ; preds = %143
  %145 = load i32, i32* %11, align 4
  %146 = add nsw i32 %145, -1
  store i32 %146, i32* %11, align 4
  br label %114

147:                                              ; preds = %114
  store i32 0, i32* %5, align 4
  br label %148

148:                                              ; preds = %164, %147
  %149 = load i32, i32* %5, align 4
  %150 = sext i32 %149 to i64
  %151 = getelementptr inbounds [1000 x i8], [1000 x i8]* %10, i64 0, i64 0
  %152 = call i64 @strlen(i8* %151) #4
  %153 = icmp ult i64 %150, %152
  br i1 %153, label %154, label %167

154:                                              ; preds = %148
  %155 = load i32, i32* %5, align 4
  %156 = sext i32 %155 to i64
  %157 = getelementptr inbounds [1000 x i8], [1000 x i8]* %10, i64 0, i64 %156
  %158 = load i8, i8* %157, align 1
  %159 = sext i8 %158 to i32
  %160 = icmp ne i32 %159, 48
  br i1 %160, label %161, label %163

161:                                              ; preds = %154
  %162 = load i32, i32* %5, align 4
  store i32 %162, i32* %2, align 4
  br label %167

163:                                              ; preds = %154
  br label %164

164:                                              ; preds = %163
  %165 = load i32, i32* %5, align 4
  %166 = add nsw i32 %165, 1
  store i32 %166, i32* %5, align 4
  br label %148

167:                                              ; preds = %161, %148
  %168 = load i32, i32* %2, align 4
  store i32 %168, i32* %5, align 4
  br label %169

169:                                              ; preds = %199, %167
  %170 = load i32, i32* %5, align 4
  %171 = sext i32 %170 to i64
  %172 = getelementptr inbounds [1000 x i8], [1000 x i8]* %10, i64 0, i64 0
  %173 = call i64 @strlen(i8* %172) #4
  %174 = icmp ult i64 %171, %173
  br i1 %174, label %175, label %202

175:                                              ; preds = %169
  %176 = load i32, i32* %5, align 4
  %177 = sext i32 %176 to i64
  %178 = getelementptr inbounds [1000 x i8], [1000 x i8]* %10, i64 0, i64 %177
  %179 = load i8, i8* %178, align 1
  %180 = sext i8 %179 to i32
  %181 = sub nsw i32 %180, 48
  %182 = icmp sge i32 %181, 0
  br i1 %182, label %183, label %198

183:                                              ; preds = %175
  %184 = load i32, i32* %5, align 4
  %185 = sext i32 %184 to i64
  %186 = getelementptr inbounds [1000 x i8], [1000 x i8]* %10, i64 0, i64 %185
  %187 = load i8, i8* %186, align 1
  %188 = sext i8 %187 to i32
  %189 = sub nsw i32 %188, 48
  %190 = icmp sle i32 %189, 9
  br i1 %190, label %191, label %198

191:                                              ; preds = %183
  %192 = load i32, i32* %5, align 4
  %193 = sext i32 %192 to i64
  %194 = getelementptr inbounds [1000 x i8], [1000 x i8]* %10, i64 0, i64 %193
  %195 = load i8, i8* %194, align 1
  %196 = sext i8 %195 to i32
  %197 = call i32 (i8*, ...) @printf(i8* getelementptr inbounds ([3 x i8], [3 x i8]* @.str.1, i64 0, i64 0), i32 %196)
  br label %198

198:                                              ; preds = %191, %183, %175
  br label %199

199:                                              ; preds = %198
  %200 = load i32, i32* %5, align 4
  %201 = add nsw i32 %200, 1
  store i32 %201, i32* %5, align 4
  br label %169

202:                                              ; preds = %169
  %203 = load i32, i32* %4, align 4
  %204 = icmp eq i32 %203, 0
  br i1 %204, label %205, label %207

205:                                              ; preds = %202
  %206 = call i32 (i8*, ...) @printf(i8* getelementptr inbounds ([2 x i8], [2 x i8]* @.str.2, i64 0, i64 0))
  br label %207

207:                                              ; preds = %205, %202
  %208 = load i32, i32* %1, align 4
  ret i32 %208
}

; Function Attrs: argmemonly nounwind willreturn
declare void @llvm.memset.p0i8.i64(i8* nocapture writeonly, i8, i64, i1 immarg) #1

declare dso_local i32 @__isoc99_scanf(i8*, ...) #2

; Function Attrs: nounwind readonly
declare dso_local i64 @strlen(i8*) #3

declare dso_local i32 @printf(i8*, ...) #2


!llvm.module.flags = !{!0}
!llvm.ident = !{!1}

!0 = !{i32 1, !"wchar_size", i32 4}
!1 = !{!"clang version 10.0.0-4ubuntu1 "}
